; Function Attrs: mustprogress nounwind uwtable
define noundef ptr @unorm2_openFiltered_75(ptr noundef %norm2, ptr noundef %filterSet, ptr nocapture noundef %pErrorCode) local_unnamed_addr #0 personality ptr @__gxx_personality_v0 {
entry:
  %0 = load i32, ptr %pErrorCode, align 4
  %cmp.i = icmp slt i32 %0, 1
  br i1 %cmp.i, label %if.end, label %return

if.end:                                           ; preds = %entry
  %cmp = icmp eq ptr %filterSet, null
  br i1 %cmp, label %if.then1, label %if.end2

if.then1:                                         ; preds = %if.end
  store i32 1, ptr %pErrorCode, align 4
  br label %return

if.end2:                                          ; preds = %if.end
  %call3 = tail call noundef ptr @_ZN6icu_757UMemorynwEm(i64 noundef 24) #5
  %new.isnull = icmp eq ptr %call3, null
  br i1 %new.isnull, label %if.then7, label %new.cont

new.cont:                                         ; preds = %if.end2
  store ptr getelementptr inbounds ({ [20 x ptr] }, ptr @_ZTVN6icu_7519FilteredNormalizer2E, i64 0, i32 0, i64 2), ptr %call3, align 8
  %norm2.i = getelementptr inbounds i8, ptr %call3, i64 8
  store ptr %norm2, ptr %norm2.i, align 8
  %set.i = getelementptr inbounds i8, ptr %call3, i64 16
  store ptr %filterSet, ptr %set.i, align 8
  br label %return

if.then7:                                         ; preds = %if.end2
  store i32 7, ptr %pErrorCode, align 4
  br label %return

return:                                           ; preds = %new.cont, %if.then7, %entry, %if.then1
  %retval.0 = phi ptr [ null, %if.then1 ], [ null, %entry ], [ null, %if.then7 ], [ %call3, %new.cont ]
  ret ptr %retval.0
}